target datalayout = "e-m:e-p270:32:32-p271:32:32-p272:64:64-i64:64-i128:128-f80:128-n8:16:32:64-S128"
target triple = "x86_64-pc-linux-gnu"

%struct._value_string_ext = type { ptr, i32, i32, ptr, ptr }
%struct.expert_field = type { i32, i32 }
%struct._packet_info = type { ptr, ptr, i32, i32, %struct.nstime_t, %struct.nstime_t, %struct.nstime_t, i8, ptr, ptr, ptr, ptr, %struct._address, %struct._address, %struct._address, %struct._address, %struct._address, %struct._address, i32, ptr, i8, [3 x i8], %struct.anon, i32, i32, i32, i32, ptr, i8, ptr, ptr, i16, i16, i32, i32, i16, i32, i32, ptr, ptr, ptr, i8, i8, i16, i16, i16, i32, i16, i16, ptr, ptr, ptr, ptr, ptr, i32, i32 }
%struct.nstime_t = type { i64, i32 }
%struct._address = type { i32, i32, ptr, ptr }
%struct.anon = type { i8, [3 x i8] }

@gmpls_sonet_signal_type_str_ext = hidden global %struct._value_string_ext { ptr @_try_val_to_str_ext_init, i32 0, i32 22, ptr @gmpls_sonet_signal_type_str, ptr @.str.33 }, align 8
@hf_rsvp_type = internal global i32 0, align 4
@hf_rsvp_lsp_tunnel_if_id_length = internal global i32 0, align 4
@hf_rsvp_lsp_tunnel_if_id_component_link_identifier = internal global i32 0, align 4
@hf_rsvp_lsp_tunnel_if_id_component_link_identifier_ipv4 = internal global i32 0, align 4
@hf_rsvp_lsp_tunnel_if_id_lsp_encoding_type = internal global i32 0, align 4
@hf_rsvp_lsp_tunnel_if_id_switching_type = internal global i32 0, align 4
@hf_rsvp_lsp_tunnel_if_id_signal_type = internal global i32 0, align 4
@hf_rsvp_lsp_tunnel_if_id_connection_id = internal global i32 0, align 4
@hf_rsvp_lsp_tunnel_if_id_sc_pc_id = internal global i32 0, align 4
@hf_rsvp_lsp_tunnel_if_id_sc_pc_scn_address = internal global i32 0, align 4
@ei_rsvp_invalid_length = internal global %struct.expert_field zeroinitializer, align 4
@.str.1560 = private unnamed_addr constant [13 x i8] c"Unknown (%d)\00", align 1
@.str.1722 = private unnamed_addr constant [16 x i8] c"Unknown TLV: %u\00", align 1
@.str.1874 = private unnamed_addr constant [41 x i8] c"Unnumbered component link identifier: %u\00", align 1
@.str.1875 = private unnamed_addr constant [41 x i8] c"1 (Unnumbered component link identifier)\00", align 1
@.str.1876 = private unnamed_addr constant [35 x i8] c"IPv4 component link identifier: %s\00", align 1
@.str.1877 = private unnamed_addr constant [35 x i8] c"2 (IPv4 component link identifier)\00", align 1
@.str.1878 = private unnamed_addr constant [24 x i8] c"Targeted client layer: \00", align 1
@.str.1879 = private unnamed_addr constant [30 x i8] c"32769 (Targeted client layer)\00", align 1
@.str.1880 = private unnamed_addr constant [51 x i8] c"LSP Encoding=%s, Switching Type=%s, Signal Type=%s\00", align 1

; Function Attrs: null_pointer_is_valid sspstrong uwtable
define internal void @dissect_rsvp_lsp_tunnel_if_id_tlv(ptr noundef %0, ptr noundef %1, ptr noundef %2, i32 noundef %3, i32 noundef %4, i32 noundef %5) #1 {
  %7 = alloca ptr, align 8
  %8 = alloca ptr, align 8
  %9 = alloca ptr, align 8
  %10 = alloca i32, align 4
  %11 = alloca i32, align 4
  %12 = alloca i32, align 4
  %13 = alloca i32, align 4
  %14 = alloca i16, align 2
  %15 = alloca i32, align 4
  %16 = alloca ptr, align 8
  %17 = alloca ptr, align 8
  %18 = alloca i32, align 4
  store ptr %0, ptr %7, align 8
  store ptr %1, ptr %8, align 8
  store ptr %2, ptr %9, align 8
  store i32 %3, ptr %10, align 4
  store i32 %4, ptr %11, align 4
  store i32 %5, ptr %12, align 4
  call void @llvm.lifetime.start.p0(i64 4, ptr %13) #14
  call void @llvm.lifetime.start.p0(i64 2, ptr %14) #14
  call void @llvm.lifetime.start.p0(i64 4, ptr %15) #14
  call void @llvm.lifetime.start.p0(i64 8, ptr %16) #14
  call void @llvm.lifetime.start.p0(i64 8, ptr %17) #14
  store i32 0, ptr %13, align 4
  br label %19

19:                                               ; preds = %250, %6
  %20 = load i32, ptr %13, align 4
  %21 = load i32, ptr %11, align 4
  %22 = icmp slt i32 %20, %21
  br i1 %22, label %23, label %254

23:                                               ; preds = %19
  %24 = load ptr, ptr %9, align 8
  %25 = load i32, ptr %10, align 4
  %26 = load i32, ptr %13, align 4
  %27 = add i32 %25, %26
  %28 = call zeroext i16 @tvb_get_ntohs(ptr noundef %24, i32 noundef %27)
  store i16 %28, ptr %14, align 2
  %29 = load ptr, ptr %9, align 8
  %30 = load i32, ptr %10, align 4
  %31 = load i32, ptr %13, align 4
  %32 = add i32 %30, %31
  %33 = add i32 %32, 2
  %34 = call zeroext i16 @tvb_get_ntohs(ptr noundef %29, i32 noundef %33)
  %35 = zext i16 %34 to i32
  store i32 %35, ptr %15, align 4
  %36 = load i32, ptr %15, align 4
  %37 = icmp eq i32 %36, 0
  br i1 %37, label %44, label %38

38:                                               ; preds = %23
  %39 = load i32, ptr %13, align 4
  %40 = load i32, ptr %15, align 4
  %41 = add i32 %39, %40
  %42 = load i32, ptr %11, align 4
  %43 = icmp sgt i32 %41, %42
  br i1 %43, label %44, label %53

44:                                               ; preds = %38, %23
  %45 = load ptr, ptr %7, align 8
  %46 = load ptr, ptr %8, align 8
  %47 = load ptr, ptr %9, align 8
  %48 = load i32, ptr %10, align 4
  %49 = load i32, ptr %13, align 4
  %50 = add i32 %48, %49
  %51 = add i32 %50, 2
  %52 = call ptr @proto_tree_add_expert(ptr noundef %45, ptr noundef %46, ptr noundef @ei_rsvp_invalid_length, ptr noundef %47, i32 noundef %51, i32 noundef 2)
  store i32 1, ptr %18, align 4
  br label %255

53:                                               ; preds = %38
  %54 = load i16, ptr %14, align 2
  %55 = zext i16 %54 to i32
  switch i32 %55, label %238 [
    i32 1, label %56
    i32 2, label %96
    i32 32769, label %139
  ]

56:                                               ; preds = %53
  %57 = load ptr, ptr %7, align 8
  %58 = load ptr, ptr %9, align 8
  %59 = load i32, ptr %10, align 4
  %60 = load i32, ptr %13, align 4
  %61 = add i32 %59, %60
  %62 = load i32, ptr %15, align 4
  %63 = load i32, ptr %12, align 4
  %64 = load ptr, ptr %9, align 8
  %65 = load i32, ptr %10, align 4
  %66 = load i32, ptr %13, align 4
  %67 = add i32 %65, %66
  %68 = add i32 %67, 4
  %69 = call i32 @tvb_get_ntohl(ptr noundef %64, i32 noundef %68)
  %70 = call ptr (ptr, ptr, i32, i32, i32, ptr, ptr, ...) @proto_tree_add_subtree_format(ptr noundef %57, ptr noundef %58, i32 noundef %61, i32 noundef %62, i32 noundef %63, ptr noundef null, ptr noundef @.str.1874, i32 noundef %69)
  store ptr %70, ptr %17, align 8
  %71 = load ptr, ptr %17, align 8
  %72 = load i32, ptr @hf_rsvp_type, align 4
  %73 = load ptr, ptr %9, align 8
  %74 = load i32, ptr %10, align 4
  %75 = load i32, ptr %13, align 4
  %76 = add i32 %74, %75
  %77 = load i16, ptr %14, align 2
  %78 = zext i16 %77 to i32
  %79 = call ptr (ptr, i32, ptr, i32, i32, i32, ptr, ...) @proto_tree_add_uint_format_value(ptr noundef %71, i32 noundef %72, ptr noundef %73, i32 noundef %76, i32 noundef 2, i32 noundef %78, ptr noundef @.str.1875)
  %80 = load ptr, ptr %17, align 8
  %81 = load i32, ptr @hf_rsvp_lsp_tunnel_if_id_length, align 4
  %82 = load ptr, ptr %9, align 8
  %83 = load i32, ptr %10, align 4
  %84 = load i32, ptr %13, align 4
  %85 = add i32 %83, %84
  %86 = add i32 %85, 2
  %87 = call ptr @proto_tree_add_item(ptr noundef %80, i32 noundef %81, ptr noundef %82, i32 noundef %86, i32 noundef 2, i32 noundef 0)
  %88 = load ptr, ptr %17, align 8
  %89 = load i32, ptr @hf_rsvp_lsp_tunnel_if_id_component_link_identifier, align 4
  %90 = load ptr, ptr %9, align 8
  %91 = load i32, ptr %10, align 4
  %92 = load i32, ptr %13, align 4
  %93 = add i32 %91, %92
  %94 = add i32 %93, 4
  %95 = call ptr @proto_tree_add_item(ptr noundef %88, i32 noundef %89, ptr noundef %90, i32 noundef %94, i32 noundef 4, i32 noundef 0)
  br label %250

96:                                               ; preds = %53
  %97 = load ptr, ptr %7, align 8
  %98 = load ptr, ptr %9, align 8
  %99 = load i32, ptr %10, align 4
  %100 = load i32, ptr %13, align 4
  %101 = add i32 %99, %100
  %102 = load i32, ptr %15, align 4
  %103 = load i32, ptr %12, align 4
  %104 = load ptr, ptr %8, align 8
  %105 = getelementptr inbounds nuw %struct._packet_info, ptr %104, i32 0, i32 51
  %106 = load ptr, ptr %105, align 8
  %107 = load ptr, ptr %9, align 8
  %108 = load i32, ptr %10, align 4
  %109 = load i32, ptr %13, align 4
  %110 = add i32 %108, %109
  %111 = add i32 %110, 4
  %112 = call ptr @tvb_address_to_str(ptr noundef %106, ptr noundef %107, i32 noundef 2, i32 noundef %111)
  %113 = call ptr (ptr, ptr, i32, i32, i32, ptr, ptr, ...) @proto_tree_add_subtree_format(ptr noundef %97, ptr noundef %98, i32 noundef %101, i32 noundef %102, i32 noundef %103, ptr noundef null, ptr noundef @.str.1876, ptr noundef %112)
  store ptr %113, ptr %17, align 8
  %114 = load ptr, ptr %17, align 8
  %115 = load i32, ptr @hf_rsvp_type, align 4
  %116 = load ptr, ptr %9, align 8
  %117 = load i32, ptr %10, align 4
  %118 = load i32, ptr %13, align 4
  %119 = add i32 %117, %118
  %120 = load i16, ptr %14, align 2
  %121 = zext i16 %120 to i32
  %122 = call ptr (ptr, i32, ptr, i32, i32, i32, ptr, ...) @proto_tree_add_uint_format_value(ptr noundef %114, i32 noundef %115, ptr noundef %116, i32 noundef %119, i32 noundef 2, i32 noundef %121, ptr noundef @.str.1877)
  %123 = load ptr, ptr %17, align 8
  %124 = load i32, ptr @hf_rsvp_lsp_tunnel_if_id_length, align 4
  %125 = load ptr, ptr %9, align 8
  %126 = load i32, ptr %10, align 4
  %127 = load i32, ptr %13, align 4
  %128 = add i32 %126, %127
  %129 = add i32 %128, 2
  %130 = call ptr @proto_tree_add_item(ptr noundef %123, i32 noundef %124, ptr noundef %125, i32 noundef %129, i32 noundef 2, i32 noundef 0)
  %131 = load ptr, ptr %17, align 8
  %132 = load i32, ptr @hf_rsvp_lsp_tunnel_if_id_component_link_identifier_ipv4, align 4
  %133 = load ptr, ptr %9, align 8
  %134 = load i32, ptr %10, align 4
  %135 = load i32, ptr %13, align 4
  %136 = add i32 %134, %135
  %137 = add i32 %136, 4
  %138 = call ptr @proto_tree_add_item(ptr noundef %131, i32 noundef %132, ptr noundef %133, i32 noundef %137, i32 noundef 4, i32 noundef 0)
  br label %250

139:                                              ; preds = %53
  %140 = load ptr, ptr %7, align 8
  %141 = load ptr, ptr %9, align 8
  %142 = load i32, ptr %10, align 4
  %143 = load i32, ptr %13, align 4
  %144 = add i32 %142, %143
  %145 = load i32, ptr %15, align 4
  %146 = load i32, ptr %12, align 4
  %147 = call ptr (ptr, ptr, i32, i32, i32, ptr, ptr, ...) @proto_tree_add_subtree_format(ptr noundef %140, ptr noundef %141, i32 noundef %144, i32 noundef %145, i32 noundef %146, ptr noundef %16, ptr noundef @.str.1878)
  store ptr %147, ptr %17, align 8
  %148 = load ptr, ptr %17, align 8
  %149 = load i32, ptr @hf_rsvp_type, align 4
  %150 = load ptr, ptr %9, align 8
  %151 = load i32, ptr %10, align 4
  %152 = load i32, ptr %13, align 4
  %153 = add i32 %151, %152
  %154 = load i16, ptr %14, align 2
  %155 = zext i16 %154 to i32
  %156 = call ptr (ptr, i32, ptr, i32, i32, i32, ptr, ...) @proto_tree_add_uint_format_value(ptr noundef %148, i32 noundef %149, ptr noundef %150, i32 noundef %153, i32 noundef 2, i32 noundef %155, ptr noundef @.str.1879)
  %157 = load ptr, ptr %17, align 8
  %158 = load i32, ptr @hf_rsvp_lsp_tunnel_if_id_length, align 4
  %159 = load ptr, ptr %9, align 8
  %160 = load i32, ptr %10, align 4
  %161 = load i32, ptr %13, align 4
  %162 = add i32 %160, %161
  %163 = add i32 %162, 2
  %164 = call ptr @proto_tree_add_item(ptr noundef %157, i32 noundef %158, ptr noundef %159, i32 noundef %163, i32 noundef 2, i32 noundef 0)
  %165 = load ptr, ptr %17, align 8
  %166 = load i32, ptr @hf_rsvp_lsp_tunnel_if_id_lsp_encoding_type, align 4
  %167 = load ptr, ptr %9, align 8
  %168 = load i32, ptr %10, align 4
  %169 = load i32, ptr %13, align 4
  %170 = add i32 %168, %169
  %171 = add i32 %170, 4
  %172 = call ptr @proto_tree_add_item(ptr noundef %165, i32 noundef %166, ptr noundef %167, i32 noundef %171, i32 noundef 1, i32 noundef 0)
  %173 = load ptr, ptr %17, align 8
  %174 = load i32, ptr @hf_rsvp_lsp_tunnel_if_id_switching_type, align 4
  %175 = load ptr, ptr %9, align 8
  %176 = load i32, ptr %10, align 4
  %177 = load i32, ptr %13, align 4
  %178 = add i32 %176, %177
  %179 = add i32 %178, 5
  %180 = call ptr @proto_tree_add_item(ptr noundef %173, i32 noundef %174, ptr noundef %175, i32 noundef %179, i32 noundef 1, i32 noundef 0)
  %181 = load ptr, ptr %17, align 8
  %182 = load i32, ptr @hf_rsvp_lsp_tunnel_if_id_signal_type, align 4
  %183 = load ptr, ptr %9, align 8
  %184 = load i32, ptr %10, align 4
  %185 = load i32, ptr %13, align 4
  %186 = add i32 %184, %185
  %187 = add i32 %186, 6
  %188 = call ptr @proto_tree_add_item(ptr noundef %181, i32 noundef %182, ptr noundef %183, i32 noundef %187, i32 noundef 1, i32 noundef 0)
  %189 = load ptr, ptr %17, align 8
  %190 = load i32, ptr @hf_rsvp_lsp_tunnel_if_id_connection_id, align 4
  %191 = load ptr, ptr %9, align 8
  %192 = load i32, ptr %10, align 4
  %193 = load i32, ptr %13, align 4
  %194 = add i32 %192, %193
  %195 = add i32 %194, 8
  %196 = call ptr @proto_tree_add_item(ptr noundef %189, i32 noundef %190, ptr noundef %191, i32 noundef %195, i32 noundef 8, i32 noundef 0)
  %197 = load ptr, ptr %17, align 8
  %198 = load i32, ptr @hf_rsvp_lsp_tunnel_if_id_sc_pc_id, align 4
  %199 = load ptr, ptr %9, align 8
  %200 = load i32, ptr %10, align 4
  %201 = load i32, ptr %13, align 4
  %202 = add i32 %200, %201
  %203 = add i32 %202, 16
  %204 = call ptr @proto_tree_add_item(ptr noundef %197, i32 noundef %198, ptr noundef %199, i32 noundef %203, i32 noundef 4, i32 noundef 0)
  %205 = load ptr, ptr %17, align 8
  %206 = load i32, ptr @hf_rsvp_lsp_tunnel_if_id_sc_pc_scn_address, align 4
  %207 = load ptr, ptr %9, align 8
  %208 = load i32, ptr %10, align 4
  %209 = load i32, ptr %13, align 4
  %210 = add i32 %208, %209
  %211 = add i32 %210, 20
  %212 = call ptr @proto_tree_add_item(ptr noundef %205, i32 noundef %206, ptr noundef %207, i32 noundef %211, i32 noundef 4, i32 noundef 0)
  %213 = load ptr, ptr %16, align 8
  %214 = load ptr, ptr %9, align 8
  %215 = load i32, ptr %10, align 4
  %216 = load i32, ptr %13, align 4
  %217 = add i32 %215, %216
  %218 = add i32 %217, 4
  %219 = call zeroext i8 @tvb_get_uint8(ptr noundef %214, i32 noundef %218)
  %220 = zext i8 %219 to i32
  %221 = call ptr @rval_to_str(i32 noundef %220, ptr noundef @gmpls_lsp_enc_rvals, ptr noundef @.str.1560)
  %222 = load ptr, ptr %9, align 8
  %223 = load i32, ptr %10, align 4
  %224 = load i32, ptr %13, align 4
  %225 = add i32 %223, %224
  %226 = add i32 %225, 5
  %227 = call zeroext i8 @tvb_get_uint8(ptr noundef %222, i32 noundef %226)
  %228 = zext i8 %227 to i32
  %229 = call ptr @rval_to_str(i32 noundef %228, ptr noundef @gmpls_switching_type_rvals, ptr noundef @.str.1560)
  %230 = load ptr, ptr %9, align 8
  %231 = load i32, ptr %10, align 4
  %232 = load i32, ptr %13, align 4
  %233 = add i32 %231, %232
  %234 = add i32 %233, 6
  %235 = call zeroext i8 @tvb_get_uint8(ptr noundef %230, i32 noundef %234)
  %236 = zext i8 %235 to i32
  %237 = call ptr @val_to_str_ext(i32 noundef %236, ptr noundef @gmpls_sonet_signal_type_str_ext, ptr noundef @.str.1560)
  call void (ptr, ptr, ...) @proto_item_append_text(ptr noundef %213, ptr noundef @.str.1880, ptr noundef %221, ptr noundef %229, ptr noundef %237)
  br label %250

238:                                              ; preds = %53
  %239 = load ptr, ptr %7, align 8
  %240 = load i32, ptr @hf_rsvp_type, align 4
  %241 = load ptr, ptr %9, align 8
  %242 = load i32, ptr %10, align 4
  %243 = load i32, ptr %13, align 4
  %244 = add i32 %242, %243
  %245 = load i16, ptr %14, align 2
  %246 = zext i16 %245 to i32
  %247 = load i16, ptr %14, align 2
  %248 = zext i16 %247 to i32
  %249 = call ptr (ptr, i32, ptr, i32, i32, i32, ptr, ...) @proto_tree_add_uint_format(ptr noundef %239, i32 noundef %240, ptr noundef %241, i32 noundef %244, i32 noundef 2, i32 noundef %246, ptr noundef @.str.1722, i32 noundef %248)
  br label %250

250:                                              ; preds = %238, %139, %96, %56
  %251 = load i32, ptr %15, align 4
  %252 = load i32, ptr %13, align 4
  %253 = add i32 %252, %251
  store i32 %253, ptr %13, align 4
  br label %19, !llvm.loop !38

254:                                              ; preds = %19
  store i32 0, ptr %18, align 4
  br label %255

255:                                              ; preds = %254, %44
  call void @llvm.lifetime.end.p0(i64 8, ptr %17) #14
  call void @llvm.lifetime.end.p0(i64 8, ptr %16) #14
  call void @llvm.lifetime.end.p0(i64 4, ptr %15) #14
  call void @llvm.lifetime.end.p0(i64 2, ptr %14) #14
  call void @llvm.lifetime.end.p0(i64 4, ptr %13) #14
  %256 = load i32, ptr %18, align 4
  switch i32 %256, label %258 [
    i32 0, label %257
    i32 1, label %257
  ]

257:                                              ; preds = %255, %255
  ret void

258:                                              ; preds = %255
  unreachable
}