; Function Attrs: null_pointer_is_valid sspstrong uwtable
define internal fastcc void @dissect_rsvp_lsp_tunnel_if_id_tlv(ptr noundef %0, ptr noundef %1, ptr noundef %2, i32 noundef %3, i32 noundef range(i32 -24, 65520) %4, i32 noundef %5) unnamed_addr #1 {
  %7 = alloca ptr, align 8
  call void @llvm.lifetime.start.p0(i64 8, ptr nonnull %7) #12
  %8 = icmp sgt i32 %4, 0
  br i1 %8, label %.lr.ph, label %.loopexit

.lr.ph:                                           ; preds = %6
  %9 = getelementptr inbounds nuw i8, ptr %1, i64 408
  br label %10

10:                                               ; preds = %.lr.ph, %82
  %.0122 = phi i32 [ 0, %.lr.ph ], [ %18, %82 ]
  %11 = add i32 %.0122, %3
  %12 = call zeroext i16 @tvb_get_ntohs(ptr noundef %2, i32 noundef %11)
  %13 = add i32 %11, 2
  %14 = call zeroext i16 @tvb_get_ntohs(ptr noundef %2, i32 noundef %13)
  %15 = zext i16 %14 to i32
  %16 = icmp eq i16 %14, 0
  br i1 %16, label %20, label %17

17:                                               ; preds = %10
  %18 = add nuw nsw i32 %.0122, %15
  %19 = icmp sgt i32 %18, %4
  br i1 %19, label %20, label %22

20:                                               ; preds = %17, %10
  %21 = call ptr @proto_tree_add_expert(ptr noundef %0, ptr noundef %1, ptr noundef nonnull @ei_rsvp_invalid_length, ptr noundef %2, i32 noundef %13, i32 noundef 2)
  br label %.loopexit

22:                                               ; preds = %17
  switch i16 %12, label %78 [
    i16 1, label %23
    i16 2, label %33
    i16 -32767, label %44
  ]

23:                                               ; preds = %22
  %24 = add i32 %11, 4
  %25 = call i32 @tvb_get_ntohl(ptr noundef %2, i32 noundef %24)
  %26 = call ptr (ptr, ptr, i32, i32, i32, ptr, ptr, ...) @proto_tree_add_subtree_format(ptr noundef %0, ptr noundef %2, i32 noundef %11, i32 noundef %15, i32 noundef %5, ptr noundef null, ptr noundef nonnull @.str.1874, i32 noundef %25)
  %27 = load i32, ptr @hf_rsvp_type, align 4
  %28 = call ptr (ptr, i32, ptr, i32, i32, i32, ptr, ...) @proto_tree_add_uint_format_value(ptr noundef %26, i32 noundef %27, ptr noundef %2, i32 noundef %11, i32 noundef 2, i32 noundef 1, ptr noundef nonnull @.str.1875)
  %29 = load i32, ptr @hf_rsvp_lsp_tunnel_if_id_length, align 4
  %30 = call ptr @proto_tree_add_item(ptr noundef %26, i32 noundef %29, ptr noundef %2, i32 noundef %13, i32 noundef 2, i32 noundef 0)
  %31 = load i32, ptr @hf_rsvp_lsp_tunnel_if_id_component_link_identifier, align 4
  %32 = call ptr @proto_tree_add_item(ptr noundef %26, i32 noundef %31, ptr noundef %2, i32 noundef %24, i32 noundef 4, i32 noundef 0)
  br label %82

33:                                               ; preds = %22
  %34 = load ptr, ptr %9, align 8
  %35 = add i32 %11, 4
  %36 = call ptr @tvb_address_to_str(ptr noundef %34, ptr noundef %2, i32 noundef 2, i32 noundef %35)
  %37 = call ptr (ptr, ptr, i32, i32, i32, ptr, ptr, ...) @proto_tree_add_subtree_format(ptr noundef %0, ptr noundef %2, i32 noundef %11, i32 noundef %15, i32 noundef %5, ptr noundef null, ptr noundef nonnull @.str.1876, ptr noundef %36)
  %38 = load i32, ptr @hf_rsvp_type, align 4
  %39 = call ptr (ptr, i32, ptr, i32, i32, i32, ptr, ...) @proto_tree_add_uint_format_value(ptr noundef %37, i32 noundef %38, ptr noundef %2, i32 noundef %11, i32 noundef 2, i32 noundef 2, ptr noundef nonnull @.str.1877)
  %40 = load i32, ptr @hf_rsvp_lsp_tunnel_if_id_length, align 4
  %41 = call ptr @proto_tree_add_item(ptr noundef %37, i32 noundef %40, ptr noundef %2, i32 noundef %13, i32 noundef 2, i32 noundef 0)
  %42 = load i32, ptr @hf_rsvp_lsp_tunnel_if_id_component_link_identifier_ipv4, align 4
  %43 = call ptr @proto_tree_add_item(ptr noundef %37, i32 noundef %42, ptr noundef %2, i32 noundef %35, i32 noundef 4, i32 noundef 0)
  br label %82

44:                                               ; preds = %22
  %45 = call ptr (ptr, ptr, i32, i32, i32, ptr, ptr, ...) @proto_tree_add_subtree_format(ptr noundef %0, ptr noundef %2, i32 noundef %11, i32 noundef %15, i32 noundef %5, ptr noundef nonnull %7, ptr noundef nonnull @.str.1878)
  %46 = load i32, ptr @hf_rsvp_type, align 4
  %47 = call ptr (ptr, i32, ptr, i32, i32, i32, ptr, ...) @proto_tree_add_uint_format_value(ptr noundef %45, i32 noundef %46, ptr noundef %2, i32 noundef %11, i32 noundef 2, i32 noundef 32769, ptr noundef nonnull @.str.1879)
  %48 = load i32, ptr @hf_rsvp_lsp_tunnel_if_id_length, align 4
  %49 = call ptr @proto_tree_add_item(ptr noundef %45, i32 noundef %48, ptr noundef %2, i32 noundef %13, i32 noundef 2, i32 noundef 0)
  %50 = load i32, ptr @hf_rsvp_lsp_tunnel_if_id_lsp_encoding_type, align 4
  %51 = add i32 %11, 4
  %52 = call ptr @proto_tree_add_item(ptr noundef %45, i32 noundef %50, ptr noundef %2, i32 noundef %51, i32 noundef 1, i32 noundef 0)
  %53 = load i32, ptr @hf_rsvp_lsp_tunnel_if_id_switching_type, align 4
  %54 = add i32 %11, 5
  %55 = call ptr @proto_tree_add_item(ptr noundef %45, i32 noundef %53, ptr noundef %2, i32 noundef %54, i32 noundef 1, i32 noundef 0)
  %56 = load i32, ptr @hf_rsvp_lsp_tunnel_if_id_signal_type, align 4
  %57 = add i32 %11, 6
  %58 = call ptr @proto_tree_add_item(ptr noundef %45, i32 noundef %56, ptr noundef %2, i32 noundef %57, i32 noundef 1, i32 noundef 0)
  %59 = load i32, ptr @hf_rsvp_lsp_tunnel_if_id_connection_id, align 4
  %60 = add i32 %11, 8
  %61 = call ptr @proto_tree_add_item(ptr noundef %45, i32 noundef %59, ptr noundef %2, i32 noundef %60, i32 noundef 8, i32 noundef 0)
  %62 = load i32, ptr @hf_rsvp_lsp_tunnel_if_id_sc_pc_id, align 4
  %63 = add i32 %11, 16
  %64 = call ptr @proto_tree_add_item(ptr noundef %45, i32 noundef %62, ptr noundef %2, i32 noundef %63, i32 noundef 4, i32 noundef 0)
  %65 = load i32, ptr @hf_rsvp_lsp_tunnel_if_id_sc_pc_scn_address, align 4
  %66 = add i32 %11, 20
  %67 = call ptr @proto_tree_add_item(ptr noundef %45, i32 noundef %65, ptr noundef %2, i32 noundef %66, i32 noundef 4, i32 noundef 0)
  %68 = load ptr, ptr %7, align 8
  %69 = call zeroext i8 @tvb_get_uint8(ptr noundef %2, i32 noundef %51)
  %70 = zext i8 %69 to i32
  %71 = call ptr @rval_to_str(i32 noundef %70, ptr noundef nonnull @gmpls_lsp_enc_rvals, ptr noundef nonnull @.str.1560)
  %72 = call zeroext i8 @tvb_get_uint8(ptr noundef %2, i32 noundef %54)
  %73 = zext i8 %72 to i32
  %74 = call ptr @rval_to_str(i32 noundef %73, ptr noundef nonnull @gmpls_switching_type_rvals, ptr noundef nonnull @.str.1560)
  %75 = call zeroext i8 @tvb_get_uint8(ptr noundef %2, i32 noundef %57)
  %76 = zext i8 %75 to i32
  %77 = call ptr @val_to_str_ext(i32 noundef %76, ptr noundef nonnull @gmpls_sonet_signal_type_str_ext, ptr noundef nonnull @.str.1560)
  call void (ptr, ptr, ...) @proto_item_append_text(ptr noundef %68, ptr noundef nonnull @.str.1880, ptr noundef %71, ptr noundef %74, ptr noundef %77)
  br label %82

78:                                               ; preds = %22
  %79 = zext i16 %12 to i32
  %80 = load i32, ptr @hf_rsvp_type, align 4
  %81 = call ptr (ptr, i32, ptr, i32, i32, i32, ptr, ...) @proto_tree_add_uint_format(ptr noundef %0, i32 noundef %80, ptr noundef %2, i32 noundef %11, i32 noundef 2, i32 noundef %79, ptr noundef nonnull @.str.1722, i32 noundef %79)
  br label %82

82:                                               ; preds = %78, %44, %33, %23
  %83 = icmp slt i32 %18, %4
  br i1 %83, label %10, label %.loopexit, !llvm.loop !34

.loopexit:                                        ; preds = %82, %6, %20
  call void @llvm.lifetime.end.p0(i64 8, ptr nonnull %7) #12
  ret void
}